; Function Attrs: nofree norecurse nosync nounwind memory(argmem: readwrite) uwtable
define void @stbrp_pack_rects(ptr noundef captures(none) %0, ptr noundef captures(none) %1, i32 noundef %2) local_unnamed_addr #22 {
  %4 = icmp sgt i32 %2, 0
  br i1 %4, label %.lr.ph, label %._crit_edge

.lr.ph:                                           ; preds = %3
  %5 = getelementptr inbounds nuw i8, ptr %0, i64 8
  %6 = load i32, ptr %0, align 4, !tbaa !163
  %7 = getelementptr inbounds nuw i8, ptr %0, i64 16
  %8 = getelementptr inbounds nuw i8, ptr %0, i64 12
  %9 = getelementptr inbounds nuw i8, ptr %0, i64 4
  %10 = load i32, ptr %9, align 4, !tbaa !165
  %.promoted = load i32, ptr %5, align 4, !tbaa !166
  %.promoted41 = load i32, ptr %8, align 4, !tbaa !167
  %wide.trip.count = zext nneg i32 %2 to i64
  br label %11

11:                                               ; preds = %.lr.ph, %35
  %indvars.iv = phi i64 [ 0, %.lr.ph ], [ %indvars.iv.next, %35 ]
  %12 = phi i32 [ %.promoted41, %.lr.ph ], [ %22, %35 ]
  %13 = phi i32 [ %.promoted, %.lr.ph ], [ %31, %35 ]
  %14 = getelementptr inbounds nuw %struct.stbrp_rect, ptr %1, i64 %indvars.iv
  %15 = getelementptr inbounds nuw i8, ptr %14, i64 12
  %16 = load i32, ptr %15, align 4, !tbaa !169
  %17 = add nsw i32 %16, %13
  %18 = icmp sgt i32 %17, %6
  br i1 %18, label %19, label %21

19:                                               ; preds = %11
  store i32 0, ptr %5, align 4, !tbaa !166
  %20 = load i32, ptr %7, align 4, !tbaa !168
  store i32 %20, ptr %8, align 4, !tbaa !167
  br label %21

21:                                               ; preds = %19, %11
  %22 = phi i32 [ %20, %19 ], [ %12, %11 ]
  %23 = phi i32 [ 0, %19 ], [ %13, %11 ]
  %24 = getelementptr inbounds nuw i8, ptr %14, i64 16
  %25 = load i32, ptr %24, align 4, !tbaa !171
  %26 = add nsw i32 %25, %22
  %27 = icmp sgt i32 %26, %10
  br i1 %27, label %._crit_edge.loopexit, label %28

28:                                               ; preds = %21
  store i32 %23, ptr %14, align 4, !tbaa !172
  %29 = getelementptr inbounds nuw i8, ptr %14, i64 4
  store i32 %22, ptr %29, align 4, !tbaa !173
  %30 = getelementptr inbounds nuw i8, ptr %14, i64 20
  store i32 1, ptr %30, align 4, !tbaa !174
  %31 = add nsw i32 %23, %16
  store i32 %31, ptr %5, align 4, !tbaa !166
  %32 = load i32, ptr %7, align 4, !tbaa !168
  %33 = icmp sgt i32 %26, %32
  br i1 %33, label %34, label %35

34:                                               ; preds = %28
  store i32 %26, ptr %7, align 4, !tbaa !168
  br label %35

35:                                               ; preds = %28, %34
  %indvars.iv.next = add nuw nsw i64 %indvars.iv, 1
  %exitcond.not = icmp eq i64 %indvars.iv.next, %wide.trip.count
  br i1 %exitcond.not, label %._crit_edge45, label %11, !llvm.loop !175

._crit_edge.loopexit:                             ; preds = %21
  %36 = trunc nuw nsw i64 %indvars.iv to i32
  br label %._crit_edge

._crit_edge:                                      ; preds = %._crit_edge.loopexit, %3
  %.0.lcssa = phi i32 [ 0, %3 ], [ %36, %._crit_edge.loopexit ]
  %37 = icmp slt i32 %.0.lcssa, %2
  br i1 %37, label %.lr.ph44.preheader, label %._crit_edge45

.lr.ph44.preheader:                               ; preds = %._crit_edge
  %38 = zext i32 %.0.lcssa to i64
  br label %.lr.ph44

.lr.ph44:                                         ; preds = %.lr.ph44.preheader, %.lr.ph44
  %indvars.iv47 = phi i64 [ %38, %.lr.ph44.preheader ], [ %indvars.iv.next48, %.lr.ph44 ]
  %39 = getelementptr inbounds nuw %struct.stbrp_rect, ptr %1, i64 %indvars.iv47, i32 5
  store i32 0, ptr %39, align 4, !tbaa !174
  %indvars.iv.next48 = add nuw nsw i64 %indvars.iv47, 1
  %40 = trunc nuw i64 %indvars.iv.next48 to i32
  %41 = icmp sgt i32 %2, %40
  br i1 %41, label %.lr.ph44, label %._crit_edge45, !llvm.loop !176

._crit_edge45:                                    ; preds = %35, %.lr.ph44, %._crit_edge
  ret void
}